; Function Attrs: nounwind uwtable
define internal void @IDAAhermiteFree(ptr noundef readonly captures(none) %0) #0 {
  %2 = getelementptr inbounds nuw i8, ptr %0, i64 2112
  %3 = load ptr, ptr %2, align 8, !tbaa !3
  %4 = getelementptr inbounds nuw i8, ptr %3, i64 344
  %5 = load ptr, ptr %4, align 8, !tbaa !48
  tail call void @N_VDestroy(ptr noundef %5) #9
  %6 = getelementptr inbounds nuw i8, ptr %3, i64 352
  %7 = load ptr, ptr %6, align 8, !tbaa !49
  tail call void @N_VDestroy(ptr noundef %7) #9
  %8 = getelementptr inbounds nuw i8, ptr %3, i64 184
  %9 = load i32, ptr %8, align 8, !tbaa !35
  %.not = icmp eq i32 %9, 0
  br i1 %.not, label %18, label %10

10:                                               ; preds = %1
  %11 = getelementptr inbounds nuw i8, ptr %3, i64 360
  %12 = load ptr, ptr %11, align 8, !tbaa !51
  %13 = getelementptr inbounds nuw i8, ptr %0, i64 160
  %14 = load i32, ptr %13, align 8, !tbaa !50
  tail call void @N_VDestroyVectorArray(ptr noundef %12, i32 noundef %14) #9
  %15 = getelementptr inbounds nuw i8, ptr %3, i64 368
  %16 = load ptr, ptr %15, align 8, !tbaa !52
  %17 = load i32, ptr %13, align 8, !tbaa !50
  tail call void @N_VDestroyVectorArray(ptr noundef %16, i32 noundef %17) #9
  br label %18

18:                                               ; preds = %10, %1
  %19 = getelementptr inbounds nuw i8, ptr %3, i64 120
  %20 = load ptr, ptr %19, align 8, !tbaa !25
  %21 = getelementptr inbounds nuw i8, ptr %3, i64 104
  %22 = load i64, ptr %21, align 8, !tbaa !23
  %.not2629 = icmp slt i64 %22, 0
  br i1 %.not2629, label %._crit_edge, label %.lr.ph

.lr.ph:                                           ; preds = %18
  %23 = getelementptr inbounds nuw i8, ptr %0, i64 160
  br label %24

24:                                               ; preds = %.lr.ph, %48
  %25 = phi i64 [ %22, %.lr.ph ], [ %49, %48 ]
  %.030 = phi i64 [ 0, %.lr.ph ], [ %50, %48 ]
  %26 = getelementptr inbounds nuw ptr, ptr %20, i64 %.030
  %27 = load ptr, ptr %26, align 8, !tbaa !26
  %28 = getelementptr inbounds nuw i8, ptr %27, i64 8
  %29 = load ptr, ptr %28, align 8, !tbaa !28
  %.not27 = icmp eq ptr %29, null
  br i1 %.not27, label %48, label %30

30:                                               ; preds = %24
  %31 = load ptr, ptr %29, align 8, !tbaa !53
  tail call void @N_VDestroy(ptr noundef %31) #9
  %32 = getelementptr inbounds nuw i8, ptr %29, i64 8
  %33 = load ptr, ptr %32, align 8, !tbaa !55
  tail call void @N_VDestroy(ptr noundef %33) #9
  %34 = load i32, ptr %8, align 8, !tbaa !35
  %.not28 = icmp eq i32 %34, 0
  br i1 %.not28, label %42, label %35

35:                                               ; preds = %30
  %36 = getelementptr inbounds nuw i8, ptr %29, i64 16
  %37 = load ptr, ptr %36, align 8, !tbaa !56
  %38 = load i32, ptr %23, align 8, !tbaa !50
  tail call void @N_VDestroyVectorArray(ptr noundef %37, i32 noundef %38) #9
  %39 = getelementptr inbounds nuw i8, ptr %29, i64 24
  %40 = load ptr, ptr %39, align 8, !tbaa !57
  %41 = load i32, ptr %23, align 8, !tbaa !50
  tail call void @N_VDestroyVectorArray(ptr noundef %40, i32 noundef %41) #9
  br label %42

42:                                               ; preds = %35, %30
  %43 = load ptr, ptr %26, align 8, !tbaa !26
  %44 = getelementptr inbounds nuw i8, ptr %43, i64 8
  %45 = load ptr, ptr %44, align 8, !tbaa !28
  tail call void @free(ptr noundef %45) #9
  %46 = load ptr, ptr %26, align 8, !tbaa !26
  %47 = getelementptr inbounds nuw i8, ptr %46, i64 8
  store ptr null, ptr %47, align 8, !tbaa !28
  %.pre = load i64, ptr %21, align 8, !tbaa !23
  br label %48

48:                                               ; preds = %24, %42
  %49 = phi i64 [ %25, %24 ], [ %.pre, %42 ]
  %50 = add nuw nsw i64 %.030, 1
  %.not26.not = icmp slt i64 %.030, %49
  br i1 %.not26.not, label %24, label %._crit_edge

._crit_edge:                                      ; preds = %48, %18
  ret void
}